target datalayout = "e-m:e-p270:32:32-p271:32:32-p272:64:64-i64:64-i128:128-f80:128-n8:16:32:64-S128"
target triple = "x86_64-pc-linux-gnu"

%struct.Type_ = type { i32, ptr, ptr, ptr, %union.anon.94, ptr, ptr, %union.anon.96 }
%union.anon.94 = type { ptr }
%union.anon.96 = type { %struct.TypeFunction }
%struct.TypeFunction = type { ptr, ptr, ptr }

; Function Attrs: nounwind uwtable
define dso_local void @llvm_value_set_int(ptr noundef %0, ptr noundef %1, ptr noundef %2, i64 noundef %3) #0 {
  %5 = alloca ptr, align 8
  %6 = alloca i32, align 4
  %7 = alloca ptr, align 8
  %8 = alloca ptr, align 8
  %9 = alloca i64, align 8
  %10 = alloca ptr, align 8
  %11 = alloca ptr, align 8
  %12 = alloca ptr, align 8
  %13 = alloca i64, align 8
  store ptr %0, ptr %10, align 8
  store ptr %1, ptr %11, align 8
  store ptr %2, ptr %12, align 8
  store i64 %3, ptr %13, align 8
  %14 = load ptr, ptr %11, align 8
  %15 = load ptr, ptr %10, align 8
  %16 = load ptr, ptr %12, align 8
  %17 = load i64, ptr %13, align 8
  store ptr %15, ptr %7, align 8
  store ptr %16, ptr %8, align 8
  store i64 %17, ptr %9, align 8
  %18 = load ptr, ptr %8, align 8
  %19 = call ptr @type_lowering(ptr noundef %18)
  store ptr %19, ptr %8, align 8
  %20 = load ptr, ptr %7, align 8
  %21 = load ptr, ptr %8, align 8
  %22 = call ptr @llvm_get_type(ptr noundef %20, ptr noundef %21) #7
  %23 = load i64, ptr %9, align 8
  %24 = load ptr, ptr %8, align 8
  store ptr %24, ptr %5, align 8
  %25 = load ptr, ptr %5, align 8
  %26 = load i32, ptr %25, align 8
  store i32 %26, ptr %6, align 4
  %27 = load i32, ptr %6, align 4
  %28 = icmp eq i32 %27, 31
  br i1 %28, label %29, label %34

29:                                               ; preds = %4
  %30 = load ptr, ptr %5, align 8
  %31 = getelementptr inbounds %struct.Type_, ptr %30, i32 0, i32 1
  %32 = load ptr, ptr %31, align 8
  %33 = load i32, ptr %32, align 8
  store i32 %33, ptr %6, align 4
  br label %34

34:                                               ; preds = %29, %4
  %35 = load i32, ptr %6, align 4
  %36 = icmp uge i32 %35, 3
  br i1 %36, label %37, label %40

37:                                               ; preds = %34
  %38 = load i32, ptr %6, align 4
  %39 = icmp ule i32 %38, 7
  br label %40

40:                                               ; preds = %37, %34
  %41 = phi i1 [ false, %34 ], [ %39, %37 ]
  %42 = zext i1 %41 to i32
  %43 = call ptr @LLVMConstInt(ptr noundef %22, i64 noundef %23, i32 noundef %42) #7
  %44 = load ptr, ptr %12, align 8
  call void @llvm_value_set(ptr noundef %14, ptr noundef %43, ptr noundef %44)
  ret void
}