; Function Attrs: nounwind uwtable
define dso_local void @llvm_value_set_int(ptr noundef %0, ptr noundef %1, ptr noundef %2, i64 noundef %3) local_unnamed_addr #0 {
  %5 = tail call fastcc ptr @type_lowering(ptr noundef %2)
  %6 = tail call ptr @llvm_get_type(ptr noundef %0, ptr noundef %5) #10
  %7 = load i32, ptr %5, align 8
  %8 = icmp eq i32 %7, 31
  br i1 %8, label %9, label %13

9:                                                ; preds = %4
  %10 = getelementptr inbounds i8, ptr %5, i64 8
  %11 = load ptr, ptr %10, align 8
  %12 = load i32, ptr %11, align 8
  br label %13

13:                                               ; preds = %9, %4
  %.0 = phi i32 [ %12, %9 ], [ %7, %4 ]
  %14 = add i32 %.0, -3
  %15 = icmp ult i32 %14, 5
  %16 = zext i1 %15 to i32
  %17 = tail call ptr @LLVMConstInt(ptr noundef %6, i64 noundef %3, i32 noundef %16) #10
  tail call void @llvm_value_set(ptr noundef %1, ptr noundef %17, ptr noundef %2) #10
  ret void
}